; ModuleID = '20/146.c'
source_filename = "20/146.c"
target datalayout = "e-m:e-p270:32:32-p271:32:32-p272:64:64-i64:64-f80:128-n8:16:32:64-S128"
target triple = "x86_64-pc-linux-gnu"

@.str = private unnamed_addr constant [5 x i8] c"%s%s\00", align 1
@.str.1 = private unnamed_addr constant [4 x i8] c"%s\0A\00", align 1

; Function Attrs: noinline nounwind uwtable
define dso_local void @main() #0 {
  %1 = alloca [1000 x [10 x i8]], align 16
  %2 = alloca [1000 x [3 x i8]], align 16
  %3 = alloca [1000 x [13 x i8]], align 16
  %4 = alloca i32, align 4
  %5 = alloca i32, align 4
  %6 = alloca i32, align 4
  %7 = alloca i32, align 4
  %8 = alloca i32, align 4
  store i32 0, i32* %5, align 4
  br label %9

9:                                                ; preds = %21, %0
  %10 = load i32, i32* %5, align 4
  %11 = sext i32 %10 to i64
  %12 = getelementptr inbounds [1000 x [10 x i8]], [1000 x [10 x i8]]* %1, i64 0, i64 %11
  %13 = getelementptr inbounds [10 x i8], [10 x i8]* %12, i64 0, i64 0
  %14 = load i32, i32* %5, align 4
  %15 = sext i32 %14 to i64
  %16 = getelementptr inbounds [1000 x [3 x i8]], [1000 x [3 x i8]]* %2, i64 0, i64 %15
  %17 = getelementptr inbounds [3 x i8], [3 x i8]* %16, i64 0, i64 0
  %18 = call i32 (i8*, ...) @__isoc99_scanf(i8* getelementptr inbounds ([5 x i8], [5 x i8]* @.str, i64 0, i64 0), i8* %13, i8* %17)
  %19 = icmp ne i32 %18, -1
  br i1 %19, label %20, label %24

20:                                               ; preds = %9
  br label %21

21:                                               ; preds = %20
  %22 = load i32, i32* %5, align 4
  %23 = add nsw i32 %22, 1
  store i32 %23, i32* %5, align 4
  br label %9

24:                                               ; preds = %9
  %25 = load i32, i32* %5, align 4
  store i32 %25, i32* %4, align 4
  store i32 0, i32* %8, align 4
  br label %26

26:                                               ; preds = %154, %24
  %27 = load i32, i32* %8, align 4
  %28 = load i32, i32* %4, align 4
  %29 = icmp slt i32 %27, %28
  br i1 %29, label %30, label %157

30:                                               ; preds = %26
  %31 = load i32, i32* %8, align 4
  %32 = sext i32 %31 to i64
  %33 = getelementptr inbounds [1000 x [10 x i8]], [1000 x [10 x i8]]* %1, i64 0, i64 %32
  %34 = getelementptr inbounds [10 x i8], [10 x i8]* %33, i64 0, i64 0
  %35 = call i64 @strlen(i8* %34) #3
  %36 = trunc i64 %35 to i32
  store i32 %36, i32* %7, align 4
  store i32 0, i32* %5, align 4
  br label %37

37:                                               ; preds = %75, %30
  %38 = load i32, i32* %5, align 4
  %39 = load i32, i32* %7, align 4
  %40 = icmp slt i32 %38, %39
  br i1 %40, label %41, label %78

41:                                               ; preds = %37
  store i32 0, i32* %6, align 4
  br label %42

42:                                               ; preds = %66, %41
  %43 = load i32, i32* %6, align 4
  %44 = load i32, i32* %7, align 4
  %45 = icmp slt i32 %43, %44
  br i1 %45, label %46, label %69

46:                                               ; preds = %42
  %47 = load i32, i32* %8, align 4
  %48 = sext i32 %47 to i64
  %49 = getelementptr inbounds [1000 x [10 x i8]], [1000 x [10 x i8]]* %1, i64 0, i64 %48
  %50 = load i32, i32* %5, align 4
  %51 = sext i32 %50 to i64
  %52 = getelementptr inbounds [10 x i8], [10 x i8]* %49, i64 0, i64 %51
  %53 = load i8, i8* %52, align 1
  %54 = sext i8 %53 to i32
  %55 = load i32, i32* %8, align 4
  %56 = sext i32 %55 to i64
  %57 = getelementptr inbounds [1000 x [10 x i8]], [1000 x [10 x i8]]* %1, i64 0, i64 %56
  %58 = load i32, i32* %6, align 4
  %59 = sext i32 %58 to i64
  %60 = getelementptr inbounds [10 x i8], [10 x i8]* %57, i64 0, i64 %59
  %61 = load i8, i8* %60, align 1
  %62 = sext i8 %61 to i32
  %63 = icmp slt i32 %54, %62
  br i1 %63, label %64, label %65

64:                                               ; preds = %46
  br label %69

65:                                               ; preds = %46
  br label %66

66:                                               ; preds = %65
  %67 = load i32, i32* %6, align 4
  %68 = add nsw i32 %67, 1
  store i32 %68, i32* %6, align 4
  br label %42

69:                                               ; preds = %64, %42
  %70 = load i32, i32* %6, align 4
  %71 = load i32, i32* %7, align 4
  %72 = icmp eq i32 %70, %71
  br i1 %72, label %73, label %74

73:                                               ; preds = %69
  br label %78

74:                                               ; preds = %69
  br label %75

75:                                               ; preds = %74
  %76 = load i32, i32* %5, align 4
  %77 = add nsw i32 %76, 1
  store i32 %77, i32* %5, align 4
  br label %37

78:                                               ; preds = %73, %37
  store i32 0, i32* %6, align 4
  br label %79

79:                                               ; preds = %97, %78
  %80 = load i32, i32* %6, align 4
  %81 = load i32, i32* %5, align 4
  %82 = icmp sle i32 %80, %81
  br i1 %82, label %83, label %100

83:                                               ; preds = %79
  %84 = load i32, i32* %8, align 4
  %85 = sext i32 %84 to i64
  %86 = getelementptr inbounds [1000 x [10 x i8]], [1000 x [10 x i8]]* %1, i64 0, i64 %85
  %87 = load i32, i32* %6, align 4
  %88 = sext i32 %87 to i64
  %89 = getelementptr inbounds [10 x i8], [10 x i8]* %86, i64 0, i64 %88
  %90 = load i8, i8* %89, align 1
  %91 = load i32, i32* %8, align 4
  %92 = sext i32 %91 to i64
  %93 = getelementptr inbounds [1000 x [13 x i8]], [1000 x [13 x i8]]* %3, i64 0, i64 %92
  %94 = load i32, i32* %6, align 4
  %95 = sext i32 %94 to i64
  %96 = getelementptr inbounds [13 x i8], [13 x i8]* %93, i64 0, i64 %95
  store i8 %90, i8* %96, align 1
  br label %97

97:                                               ; preds = %83
  %98 = load i32, i32* %6, align 4
  %99 = add nsw i32 %98, 1
  store i32 %99, i32* %6, align 4
  br label %79

100:                                              ; preds = %79
  store i32 0, i32* %6, align 4
  br label %101

101:                                              ; preds = %121, %100
  %102 = load i32, i32* %6, align 4
  %103 = icmp slt i32 %102, 3
  br i1 %103, label %104, label %124

104:                                              ; preds = %101
  %105 = load i32, i32* %8, align 4
  %106 = sext i32 %105 to i64
  %107 = getelementptr inbounds [1000 x [3 x i8]], [1000 x [3 x i8]]* %2, i64 0, i64 %106
  %108 = load i32, i32* %6, align 4
  %109 = sext i32 %108 to i64
  %110 = getelementptr inbounds [3 x i8], [3 x i8]* %107, i64 0, i64 %109
  %111 = load i8, i8* %110, align 1
  %112 = load i32, i32* %8, align 4
  %113 = sext i32 %112 to i64
  %114 = getelementptr inbounds [1000 x [13 x i8]], [1000 x [13 x i8]]* %3, i64 0, i64 %113
  %115 = load i32, i32* %5, align 4
  %116 = load i32, i32* %6, align 4
  %117 = add nsw i32 %115, %116
  %118 = add nsw i32 %117, 1
  %119 = sext i32 %118 to i64
  %120 = getelementptr inbounds [13 x i8], [13 x i8]* %114, i64 0, i64 %119
  store i8 %111, i8* %120, align 1
  br label %121

121:                                              ; preds = %104
  %122 = load i32, i32* %6, align 4
  %123 = add nsw i32 %122, 1
  store i32 %123, i32* %6, align 4
  br label %101

124:                                              ; preds = %101
  store i32 1, i32* %6, align 4
  br label %125

125:                                              ; preds = %150, %124
  %126 = load i32, i32* %6, align 4
  %127 = load i32, i32* %7, align 4
  %128 = load i32, i32* %5, align 4
  %129 = sub nsw i32 %127, %128
  %130 = icmp slt i32 %126, %129
  br i1 %130, label %131, label %153

131:                                              ; preds = %125
  %132 = load i32, i32* %8, align 4
  %133 = sext i32 %132 to i64
  %134 = getelementptr inbounds [1000 x [10 x i8]], [1000 x [10 x i8]]* %1, i64 0, i64 %133
  %135 = load i32, i32* %5, align 4
  %136 = load i32, i32* %6, align 4
  %137 = add nsw i32 %135, %136
  %138 = sext i32 %137 to i64
  %139 = getelementptr inbounds [10 x i8], [10 x i8]* %134, i64 0, i64 %138
  %140 = load i8, i8* %139, align 1
  %141 = load i32, i32* %8, align 4
  %142 = sext i32 %141 to i64
  %143 = getelementptr inbounds [1000 x [13 x i8]], [1000 x [13 x i8]]* %3, i64 0, i64 %142
  %144 = load i32, i32* %5, align 4
  %145 = add nsw i32 %144, 3
  %146 = load i32, i32* %6, align 4
  %147 = add nsw i32 %145, %146
  %148 = sext i32 %147 to i64
  %149 = getelementptr inbounds [13 x i8], [13 x i8]* %143, i64 0, i64 %148
  store i8 %140, i8* %149, align 1
  br label %150

150:                                              ; preds = %131
  %151 = load i32, i32* %6, align 4
  %152 = add nsw i32 %151, 1
  store i32 %152, i32* %6, align 4
  br label %125

153:                                              ; preds = %125
  br label %154

154:                                              ; preds = %153
  %155 = load i32, i32* %8, align 4
  %156 = add nsw i32 %155, 1
  store i32 %156, i32* %8, align 4
  br label %26

157:                                              ; preds = %26
  store i32 0, i32* %5, align 4
  br label %158

158:                                              ; preds = %168, %157
  %159 = load i32, i32* %5, align 4
  %160 = load i32, i32* %4, align 4
  %161 = icmp slt i32 %159, %160
  br i1 %161, label %162, label %171

162:                                              ; preds = %158
  %163 = load i32, i32* %5, align 4
  %164 = sext i32 %163 to i64
  %165 = getelementptr inbounds [1000 x [13 x i8]], [1000 x [13 x i8]]* %3, i64 0, i64 %164
  %166 = getelementptr inbounds [13 x i8], [13 x i8]* %165, i64 0, i64 0
  %167 = call i32 (i8*, ...) @printf(i8* getelementptr inbounds ([4 x i8], [4 x i8]* @.str.1, i64 0, i64 0), i8* %166)
  br label %168

168:                                              ; preds = %162
  %169 = load i32, i32* %5, align 4
  %170 = add nsw i32 %169, 1
  store i32 %170, i32* %5, align 4
  br label %158

171:                                              ; preds = %158
  ret void
}

declare dso_local i32 @__isoc99_scanf(i8*, ...) #1

; Function Attrs: nounwind readonly
declare dso_local i64 @strlen(i8*) #2

declare dso_local i32 @printf(i8*, ...) #1


!llvm.module.flags = !{!0}
!llvm.ident = !{!1}

!0 = !{i32 1, !"wchar_size", i32 4}
!1 = !{!"clang version 10.0.0-4ubuntu1 "}
